; Function Attrs: mustprogress nofree norecurse nosync nounwind willreturn memory(read, inaccessiblemem: none) uwtable
define noundef nonnull ptr @_ZNK32pxrInternal_v0_24__pxrReserved__18HgiShaderGenerator26_GetShaderCodeDeclarationsEv(ptr noundef nonnull readonly align 8 captures(none) dereferenceable(48) %0) local_unnamed_addr #6 align 2 {
  %2 = getelementptr inbounds nuw i8, ptr %0, i64 8
  %3 = load ptr, ptr %2, align 8
  %4 = getelementptr inbounds nuw i8, ptr %3, i64 40
  %5 = load ptr, ptr %4, align 8
  %.not = icmp eq ptr %5, null
  %.str. = select i1 %.not, ptr @.str, ptr %5
  ret ptr %.str.
}